; Function Attrs: mustprogress uwtable
define noundef i32 @_ZN6icu_7715PersianCalendar21handleGetExtendedYearER10UErrorCode(ptr noundef nonnull align 8 dereferenceable(192) %0, ptr noundef nonnull readonly align 4 captures(none) dereferenceable(4) %1) unnamed_addr #1 align 2 {
  %3 = load i32, ptr %1, align 4, !tbaa !15
  %4 = icmp slt i32 %3, 1
  br i1 %4, label %5, label %_ZNK6icu_778Calendar11internalGetE19UCalendarDateFieldsi.exit

5:                                                ; preds = %2
  %6 = tail call noundef i32 @_ZNK6icu_778Calendar10newerFieldE19UCalendarDateFieldsS1_(ptr noundef nonnull align 8 dereferenceable(192) %0, i32 noundef 19, i32 noundef 1)
  %7 = icmp eq i32 %6, 19
  br i1 %7, label %8, label %15

8:                                                ; preds = %5
  %9 = getelementptr inbounds nuw i8, ptr %0, i64 123
  %10 = load i8, ptr %9, align 1, !tbaa !14
  %11 = icmp sgt i8 %10, 0
  br i1 %11, label %12, label %_ZNK6icu_778Calendar11internalGetE19UCalendarDateFieldsi.exit

12:                                               ; preds = %8
  %13 = getelementptr inbounds nuw i8, ptr %0, i64 84
  %14 = load i32, ptr %13, align 4, !tbaa !6
  br label %_ZNK6icu_778Calendar11internalGetE19UCalendarDateFieldsi.exit

15:                                               ; preds = %5
  %16 = getelementptr inbounds nuw i8, ptr %0, i64 105
  %17 = load i8, ptr %16, align 1, !tbaa !14
  %18 = icmp sgt i8 %17, 0
  br i1 %18, label %19, label %_ZNK6icu_778Calendar11internalGetE19UCalendarDateFieldsi.exit

19:                                               ; preds = %15
  %20 = getelementptr inbounds nuw i8, ptr %0, i64 12
  %21 = load i32, ptr %20, align 4, !tbaa !6
  br label %_ZNK6icu_778Calendar11internalGetE19UCalendarDateFieldsi.exit

_ZNK6icu_778Calendar11internalGetE19UCalendarDateFieldsi.exit: ; preds = %19, %15, %12, %8, %2
  %.0 = phi i32 [ 0, %2 ], [ %14, %12 ], [ 1, %8 ], [ %21, %19 ], [ 1, %15 ]
  ret i32 %.0
}